target datalayout = "e-m:e-p270:32:32-p271:32:32-p272:64:64-i64:64-i128:128-f80:128-n8:16:32:64-S128"
target triple = "x86_64-pc-linux-gnu"

%"struct.base::trace_event::StackFrame" = type { i32, ptr }
%"struct.base::trace_event::Backtrace" = type { [48 x %"struct.base::trace_event::StackFrame"], i64 }
%"struct.base::trace_event::AllocationContext" = type { %"struct.base::trace_event::Backtrace", ptr }

; Function Attrs: mustprogress nounwind uwtable
define noundef zeroext i1 @_ZN4base11trace_eventeqERKNS0_10StackFrameES3_(ptr noundef nonnull align 8 dereferenceable(16) %0, ptr noundef nonnull align 8 dereferenceable(16) %1) #0 {
  %3 = alloca ptr, align 8
  %4 = alloca ptr, align 8
  store ptr %0, ptr %3, align 8, !tbaa !3
  store ptr %1, ptr %4, align 8, !tbaa !3
  %5 = load ptr, ptr %3, align 8, !tbaa !3
  %6 = getelementptr inbounds nuw %"struct.base::trace_event::StackFrame", ptr %5, i32 0, i32 1
  %7 = load ptr, ptr %6, align 8, !tbaa !8
  %8 = load ptr, ptr %4, align 8, !tbaa !3
  %9 = getelementptr inbounds nuw %"struct.base::trace_event::StackFrame", ptr %8, i32 0, i32 1
  %10 = load ptr, ptr %9, align 8, !tbaa !8
  %11 = icmp eq ptr %7, %10
  ret i1 %11
}

; Function Attrs: mustprogress nounwind uwtable
define linkonce_odr noundef zeroext i1 @_ZNSt7__equalILb0EE5equalIPKN4base11trace_event10StackFrameES6_EEbT_S7_T0_(ptr noundef %0, ptr noundef %1, ptr noundef %2) #0 comdat align 2 {
  %4 = alloca i1, align 1
  %5 = alloca ptr, align 8
  %6 = alloca ptr, align 8
  %7 = alloca ptr, align 8
  store ptr %0, ptr %5, align 8, !tbaa !3
  store ptr %1, ptr %6, align 8, !tbaa !3
  store ptr %2, ptr %7, align 8, !tbaa !3
  br label %8

8:                                                ; preds = %18, %3
  %9 = load ptr, ptr %5, align 8, !tbaa !3
  %10 = load ptr, ptr %6, align 8, !tbaa !3
  %11 = icmp ne ptr %9, %10
  br i1 %11, label %12, label %23

12:                                               ; preds = %8
  %13 = load ptr, ptr %5, align 8, !tbaa !3
  %14 = load ptr, ptr %7, align 8, !tbaa !3
  %15 = call noundef zeroext i1 @_ZN4base11trace_eventeqERKNS0_10StackFrameES3_(ptr noundef nonnull align 8 dereferenceable(16) %13, ptr noundef nonnull align 8 dereferenceable(16) %14)
  br i1 %15, label %17, label %16

16:                                               ; preds = %12
  store i1 false, ptr %4, align 1
  br label %24

17:                                               ; preds = %12
  br label %18

18:                                               ; preds = %17
  %19 = load ptr, ptr %5, align 8, !tbaa !3
  %20 = getelementptr inbounds nuw %"struct.base::trace_event::StackFrame", ptr %19, i32 1
  store ptr %20, ptr %5, align 8, !tbaa !3
  %21 = load ptr, ptr %7, align 8, !tbaa !3
  %22 = getelementptr inbounds nuw %"struct.base::trace_event::StackFrame", ptr %21, i32 1
  store ptr %22, ptr %7, align 8, !tbaa !3
  br label %8, !llvm.loop !38

23:                                               ; preds = %8
  store i1 true, ptr %4, align 1
  br label %24

24:                                               ; preds = %23, %16
  %25 = load i1, ptr %4, align 1
  ret i1 %25
}

; Function Attrs: inlinehint mustprogress uwtable
define linkonce_odr noundef zeroext i1 @_ZSt12__equal_aux1IPKN4base11trace_event10StackFrameES4_EbT_S5_T0_(ptr noundef %0, ptr noundef %1, ptr noundef %2) #2 comdat {
  %4 = alloca ptr, align 8
  %5 = alloca ptr, align 8
  %6 = alloca ptr, align 8
  %7 = alloca i8, align 1
  store ptr %0, ptr %4, align 8, !tbaa !3
  store ptr %1, ptr %5, align 8, !tbaa !3
  store ptr %2, ptr %6, align 8, !tbaa !3
  call void @llvm.lifetime.start.p0(i64 1, ptr %7) #7
  store i8 0, ptr %7, align 1, !tbaa !36
  %8 = load ptr, ptr %4, align 8, !tbaa !3
  %9 = load ptr, ptr %5, align 8, !tbaa !3
  %10 = load ptr, ptr %6, align 8, !tbaa !3
  %11 = call noundef zeroext i1 @_ZNSt7__equalILb0EE5equalIPKN4base11trace_event10StackFrameES6_EEbT_S7_T0_(ptr noundef %8, ptr noundef %9, ptr noundef %10)
  call void @llvm.lifetime.end.p0(i64 1, ptr %7) #7
  ret i1 %11
}

; Function Attrs: inlinehint mustprogress nounwind uwtable
define linkonce_odr noundef ptr @_ZSt12__niter_baseIPKN4base11trace_event10StackFrameEET_S5_(ptr noundef %0) #6 comdat {
  %2 = alloca ptr, align 8
  store ptr %0, ptr %2, align 8, !tbaa !3
  %3 = load ptr, ptr %2, align 8, !tbaa !3
  ret ptr %3
}

; Function Attrs: inlinehint mustprogress uwtable
define linkonce_odr noundef zeroext i1 @_ZSt11__equal_auxIPKN4base11trace_event10StackFrameES4_EbT_S5_T0_(ptr noundef %0, ptr noundef %1, ptr noundef %2) #2 comdat {
  %4 = alloca ptr, align 8
  %5 = alloca ptr, align 8
  %6 = alloca ptr, align 8
  store ptr %0, ptr %4, align 8, !tbaa !3
  store ptr %1, ptr %5, align 8, !tbaa !3
  store ptr %2, ptr %6, align 8, !tbaa !3
  %7 = load ptr, ptr %4, align 8, !tbaa !3
  %8 = call noundef ptr @_ZSt12__niter_baseIPKN4base11trace_event10StackFrameEET_S5_(ptr noundef %7) #7
  %9 = load ptr, ptr %5, align 8, !tbaa !3
  %10 = call noundef ptr @_ZSt12__niter_baseIPKN4base11trace_event10StackFrameEET_S5_(ptr noundef %9) #7
  %11 = load ptr, ptr %6, align 8, !tbaa !3
  %12 = call noundef ptr @_ZSt12__niter_baseIPKN4base11trace_event10StackFrameEET_S5_(ptr noundef %11) #7
  %13 = call noundef zeroext i1 @_ZSt12__equal_aux1IPKN4base11trace_event10StackFrameES4_EbT_S5_T0_(ptr noundef %8, ptr noundef %10, ptr noundef %12)
  ret i1 %13
}

; Function Attrs: inlinehint mustprogress uwtable
define linkonce_odr noundef zeroext i1 @_ZSt5equalIPKN4base11trace_event10StackFrameES4_EbT_S5_T0_(ptr noundef %0, ptr noundef %1, ptr noundef %2) #2 comdat {
  %4 = alloca ptr, align 8
  %5 = alloca ptr, align 8
  %6 = alloca ptr, align 8
  store ptr %0, ptr %4, align 8, !tbaa !3
  store ptr %1, ptr %5, align 8, !tbaa !3
  store ptr %2, ptr %6, align 8, !tbaa !3
  %7 = load ptr, ptr %4, align 8, !tbaa !3
  %8 = load ptr, ptr %5, align 8, !tbaa !3
  %9 = load ptr, ptr %6, align 8, !tbaa !3
  %10 = call noundef zeroext i1 @_ZSt11__equal_auxIPKN4base11trace_event10StackFrameES4_EbT_S5_T0_(ptr noundef %7, ptr noundef %8, ptr noundef %9)
  ret i1 %10
}

; Function Attrs: mustprogress uwtable
define noundef zeroext i1 @_ZN4base11trace_eventeqERKNS0_9BacktraceES3_(ptr noundef nonnull align 8 dereferenceable(776) %0, ptr noundef nonnull align 8 dereferenceable(776) %1) #1 {
  %3 = alloca i1, align 1
  %4 = alloca ptr, align 8
  %5 = alloca ptr, align 8
  store ptr %0, ptr %4, align 8, !tbaa !11
  store ptr %1, ptr %5, align 8, !tbaa !11
  %6 = load ptr, ptr %4, align 8, !tbaa !11
  %7 = getelementptr inbounds nuw %"struct.base::trace_event::Backtrace", ptr %6, i32 0, i32 1
  %8 = load i64, ptr %7, align 8, !tbaa !13
  %9 = load ptr, ptr %5, align 8, !tbaa !11
  %10 = getelementptr inbounds nuw %"struct.base::trace_event::Backtrace", ptr %9, i32 0, i32 1
  %11 = load i64, ptr %10, align 8, !tbaa !13
  %12 = icmp ne i64 %8, %11
  br i1 %12, label %13, label %14

13:                                               ; preds = %2
  store i1 false, ptr %3, align 1
  br label %29

14:                                               ; preds = %2
  %15 = load ptr, ptr %4, align 8, !tbaa !11
  %16 = getelementptr inbounds nuw %"struct.base::trace_event::Backtrace", ptr %15, i32 0, i32 0
  %17 = getelementptr inbounds [48 x %"struct.base::trace_event::StackFrame"], ptr %16, i64 0, i64 0
  %18 = load ptr, ptr %4, align 8, !tbaa !11
  %19 = getelementptr inbounds nuw %"struct.base::trace_event::Backtrace", ptr %18, i32 0, i32 0
  %20 = getelementptr inbounds [48 x %"struct.base::trace_event::StackFrame"], ptr %19, i64 0, i64 0
  %21 = load ptr, ptr %4, align 8, !tbaa !11
  %22 = getelementptr inbounds nuw %"struct.base::trace_event::Backtrace", ptr %21, i32 0, i32 1
  %23 = load i64, ptr %22, align 8, !tbaa !13
  %24 = getelementptr inbounds nuw %"struct.base::trace_event::StackFrame", ptr %20, i64 %23
  %25 = load ptr, ptr %5, align 8, !tbaa !11
  %26 = getelementptr inbounds nuw %"struct.base::trace_event::Backtrace", ptr %25, i32 0, i32 0
  %27 = getelementptr inbounds [48 x %"struct.base::trace_event::StackFrame"], ptr %26, i64 0, i64 0
  %28 = call noundef zeroext i1 @_ZSt5equalIPKN4base11trace_event10StackFrameES4_EbT_S5_T0_(ptr noundef %17, ptr noundef %24, ptr noundef %27)
  store i1 %28, ptr %3, align 1
  br label %29

29:                                               ; preds = %14, %13
  %30 = load i1, ptr %3, align 1
  ret i1 %30
}

; Function Attrs: mustprogress uwtable
define noundef zeroext i1 @_ZN4base11trace_eventeqERKNS0_17AllocationContextES3_(ptr noundef nonnull align 8 dereferenceable(784) %0, ptr noundef nonnull align 8 dereferenceable(784) %1) #1 {
  %3 = alloca ptr, align 8
  %4 = alloca ptr, align 8
  store ptr %0, ptr %3, align 8, !tbaa !16
  store ptr %1, ptr %4, align 8, !tbaa !16
  %5 = load ptr, ptr %3, align 8, !tbaa !16
  %6 = getelementptr inbounds nuw %"struct.base::trace_event::AllocationContext", ptr %5, i32 0, i32 0
  %7 = load ptr, ptr %4, align 8, !tbaa !16
  %8 = getelementptr inbounds nuw %"struct.base::trace_event::AllocationContext", ptr %7, i32 0, i32 0
  %9 = call noundef zeroext i1 @_ZN4base11trace_eventeqERKNS0_9BacktraceES3_(ptr noundef nonnull align 8 dereferenceable(776) %6, ptr noundef nonnull align 8 dereferenceable(776) %8)
  br i1 %9, label %10, label %18

10:                                               ; preds = %2
  %11 = load ptr, ptr %3, align 8, !tbaa !16
  %12 = getelementptr inbounds nuw %"struct.base::trace_event::AllocationContext", ptr %11, i32 0, i32 1
  %13 = load ptr, ptr %12, align 8, !tbaa !18
  %14 = load ptr, ptr %4, align 8, !tbaa !16
  %15 = getelementptr inbounds nuw %"struct.base::trace_event::AllocationContext", ptr %14, i32 0, i32 1
  %16 = load ptr, ptr %15, align 8, !tbaa !18
  %17 = icmp eq ptr %13, %16
  br label %18

18:                                               ; preds = %10, %2
  %19 = phi i1 [ false, %2 ], [ %17, %10 ]
  ret i1 %19
}

; Function Attrs: mustprogress uwtable
define noundef zeroext i1 @_ZN4base11trace_eventneERKNS0_17AllocationContextES3_(ptr noundef nonnull align 8 dereferenceable(784) %0, ptr noundef nonnull align 8 dereferenceable(784) %1) #1 {
  %3 = alloca ptr, align 8
  %4 = alloca ptr, align 8
  store ptr %0, ptr %3, align 8, !tbaa !16
  store ptr %1, ptr %4, align 8, !tbaa !16
  %5 = load ptr, ptr %3, align 8, !tbaa !16
  %6 = load ptr, ptr %4, align 8, !tbaa !16
  %7 = call noundef zeroext i1 @_ZN4base11trace_eventeqERKNS0_17AllocationContextES3_(ptr noundef nonnull align 8 dereferenceable(784) %5, ptr noundef nonnull align 8 dereferenceable(784) %6)
  %8 = xor i1 %7, true
  ret i1 %8
}