; Function Attrs: mustprogress nofree norecurse nosync nounwind willreturn memory(argmem: read) uwtable
define noundef zeroext i1 @_ZN4base11trace_eventneERKNS0_17AllocationContextES3_(ptr noundef nonnull readonly align 8 captures(address) dereferenceable(784) %0, ptr noundef nonnull readonly align 8 captures(none) dereferenceable(784) %1) local_unnamed_addr #0 {
  %3 = getelementptr inbounds nuw i8, ptr %0, i64 768
  %4 = load i64, ptr %3, align 8, !tbaa !9
  %5 = getelementptr inbounds nuw i8, ptr %1, i64 768
  %6 = load i64, ptr %5, align 8, !tbaa !9
  %.not.i.i = icmp eq i64 %4, %6
  br i1 %.not.i.i, label %7, label %_ZN4base11trace_eventeqERKNS0_17AllocationContextES3_.exit

7:                                                ; preds = %2
  %8 = getelementptr inbounds nuw %"struct.base::trace_event::StackFrame", ptr %0, i64 %4
  %.not9.i.i.i.i.i.i = icmp eq i64 %4, 0
  br i1 %.not9.i.i.i.i.i.i, label %_ZN4base11trace_eventeqERKNS0_17AllocationContextES3_.exit, label %.lr.ph.i.i.i.i.i.i

.lr.ph.i.i.i.i.i.i:                               ; preds = %7, %.lr.ph.i.i.i.i.i.i
  %.011.i.i.i.i.i.i = phi ptr [ %14, %.lr.ph.i.i.i.i.i.i ], [ %1, %7 ]
  %.0810.i.i.i.i.i.i = phi ptr [ %13, %.lr.ph.i.i.i.i.i.i ], [ %0, %7 ]
  %9 = getelementptr inbounds nuw i8, ptr %.0810.i.i.i.i.i.i, i64 8
  %10 = load ptr, ptr %9, align 8, !tbaa !3
  %11 = getelementptr inbounds nuw i8, ptr %.011.i.i.i.i.i.i, i64 8
  %12 = load ptr, ptr %11, align 8, !tbaa !3
  %.not = icmp ne ptr %10, %12
  %13 = getelementptr inbounds nuw i8, ptr %.0810.i.i.i.i.i.i, i64 16
  %14 = getelementptr inbounds nuw i8, ptr %.011.i.i.i.i.i.i, i64 16
  %.not.i.i.i.i.i.i = icmp eq ptr %13, %8
  %or.cond = select i1 %.not, i1 true, i1 %.not.i.i.i.i.i.i
  br i1 %or.cond, label %_ZN4base11trace_eventeqERKNS0_17AllocationContextES3_.exit, label %.lr.ph.i.i.i.i.i.i, !llvm.loop !12

_ZN4base11trace_eventeqERKNS0_17AllocationContextES3_.exit: ; preds = %.lr.ph.i.i.i.i.i.i, %2, %7
  %.0.i.i.not = phi i1 [ true, %2 ], [ false, %7 ], [ %.not, %.lr.ph.i.i.i.i.i.i ]
  %15 = getelementptr inbounds nuw i8, ptr %0, i64 776
  %16 = load ptr, ptr %15, align 8
  %17 = getelementptr inbounds nuw i8, ptr %1, i64 776
  %18 = load ptr, ptr %17, align 8
  %19 = icmp ne ptr %16, %18
  %.not2 = select i1 %.0.i.i.not, i1 true, i1 %19
  ret i1 %.not2
}